; Function Attrs: nounwind uwtable
define internal ptr @_sha3_sha3_224_hexdigest(ptr noundef %0, ptr readnone captures(none) %1) #0 {
  %3 = alloca [64 x i8], align 16
  call void @llvm.lifetime.start.p0(i64 64, ptr nonnull %3) #4
  %4 = getelementptr inbounds nuw i8, ptr %0, i64 16
  %5 = load i8, ptr %4, align 8, !tbaa !51, !range !58, !noundef !59
  %6 = trunc nuw i8 %5 to i1
  br i1 %6, label %7, label %_PyMutex_Lock.exit.i

7:                                                ; preds = %2
  %8 = getelementptr inbounds nuw i8, ptr %0, i64 17
  %9 = cmpxchg ptr %8, i8 0, i8 1 seq_cst seq_cst, align 1
  %10 = extractvalue { i8, i1 } %9, 1
  br i1 %10, label %_PyMutex_Lock.exit.i, label %11

11:                                               ; preds = %7
  tail call void @PyMutex_Lock(ptr noundef nonnull %8) #4
  br label %_PyMutex_Lock.exit.i

_PyMutex_Lock.exit.i:                             ; preds = %11, %7, %2
  %12 = getelementptr inbounds nuw i8, ptr %0, i64 24
  %13 = load ptr, ptr %12, align 8, !tbaa !16
  %14 = call zeroext i8 @python_hashlib_Hacl_Hash_SHA3_digest(ptr noundef %13, ptr noundef nonnull %3) #4
  %15 = load i8, ptr %4, align 8, !tbaa !51, !range !58, !noundef !59
  %16 = trunc nuw i8 %15 to i1
  br i1 %16, label %17, label %_sha3_sha3_224_hexdigest_impl.exit

17:                                               ; preds = %_PyMutex_Lock.exit.i
  %18 = getelementptr inbounds nuw i8, ptr %0, i64 17
  %19 = cmpxchg ptr %18, i8 1, i8 0 seq_cst seq_cst, align 1
  %20 = extractvalue { i8, i1 } %19, 1
  br i1 %20, label %_sha3_sha3_224_hexdigest_impl.exit, label %21

21:                                               ; preds = %17
  call void @PyMutex_Unlock(ptr noundef nonnull %18) #4
  br label %_sha3_sha3_224_hexdigest_impl.exit

_sha3_sha3_224_hexdigest_impl.exit:               ; preds = %_PyMutex_Lock.exit.i, %17, %21
  %22 = load ptr, ptr %12, align 8, !tbaa !16
  %23 = call i32 @python_hashlib_Hacl_Hash_SHA3_hash_len(ptr noundef %22) #4
  %24 = zext i32 %23 to i64
  %25 = call ptr @_Py_strhex(ptr noundef nonnull %3, i64 noundef %24) #4
  call void @llvm.lifetime.end.p0(i64 64, ptr nonnull %3) #4
  ret ptr %25
}